; ModuleID = '11/134.c'
source_filename = "11/134.c"
target datalayout = "e-m:e-p270:32:32-p271:32:32-p272:64:64-i64:64-f80:128-n8:16:32:64-S128"
target triple = "x86_64-pc-linux-gnu"

@__const.main.d = private unnamed_addr constant [12 x i32] [i32 31, i32 28, i32 31, i32 30, i32 31, i32 30, i32 31, i32 31, i32 30, i32 31, i32 30, i32 31], align 16
@.str = private unnamed_addr constant [7 x i8] c"%d%d%d\00", align 1
@.str.1 = private unnamed_addr constant [3 x i8] c"%d\00", align 1

; Function Attrs: noinline nounwind uwtable
define dso_local i32 @main(i32 %0, i8** %1) #0 {
  %3 = alloca i32, align 4
  %4 = alloca i32, align 4
  %5 = alloca i8**, align 8
  %6 = alloca [12 x i32], align 16
  %7 = alloca i32, align 4
  %8 = alloca i32, align 4
  %9 = alloca i32, align 4
  %10 = alloca i32, align 4
  %11 = alloca i32, align 4
  store i32 0, i32* %3, align 4
  store i32 %0, i32* %4, align 4
  store i8** %1, i8*** %5, align 8
  %12 = bitcast [12 x i32]* %6 to i8*
  call void @llvm.memcpy.p0i8.p0i8.i64(i8* align 16 %12, i8* align 16 bitcast ([12 x i32]* @__const.main.d to i8*), i64 48, i1 false)
  store i32 0, i32* %11, align 4
  %13 = call i32 (i8*, ...) @__isoc99_scanf(i8* getelementptr inbounds ([7 x i8], [7 x i8]* @.str, i64 0, i64 0), i32* %7, i32* %8, i32* %9)
  store i32 1, i32* %10, align 4
  br label %14

14:                                               ; preds = %26, %2
  %15 = load i32, i32* %10, align 4
  %16 = load i32, i32* %8, align 4
  %17 = icmp slt i32 %15, %16
  br i1 %17, label %18, label %29

18:                                               ; preds = %14
  %19 = load i32, i32* %11, align 4
  %20 = load i32, i32* %10, align 4
  %21 = sub nsw i32 %20, 1
  %22 = sext i32 %21 to i64
  %23 = getelementptr inbounds [12 x i32], [12 x i32]* %6, i64 0, i64 %22
  %24 = load i32, i32* %23, align 4
  %25 = add nsw i32 %19, %24
  store i32 %25, i32* %11, align 4
  br label %26

26:                                               ; preds = %18
  %27 = load i32, i32* %10, align 4
  %28 = add nsw i32 %27, 1
  store i32 %28, i32* %10, align 4
  br label %14

29:                                               ; preds = %14
  %30 = load i32, i32* %11, align 4
  %31 = load i32, i32* %9, align 4
  %32 = add nsw i32 %30, %31
  store i32 %32, i32* %11, align 4
  %33 = load i32, i32* %7, align 4
  %34 = srem i32 %33, 4
  %35 = icmp eq i32 %34, 0
  br i1 %35, label %40, label %36

36:                                               ; preds = %29
  %37 = load i32, i32* %7, align 4
  %38 = srem i32 %37, 400
  %39 = icmp eq i32 %38, 0
  br i1 %39, label %40, label %46

40:                                               ; preds = %36, %29
  %41 = load i32, i32* %8, align 4
  %42 = icmp sgt i32 %41, 2
  br i1 %42, label %43, label %46

43:                                               ; preds = %40
  %44 = load i32, i32* %11, align 4
  %45 = add nsw i32 %44, 1
  store i32 %45, i32* %11, align 4
  store i32 %44, i32* %11, align 4
  br label %46

46:                                               ; preds = %43, %40, %36
  %47 = load i32, i32* %11, align 4
  %48 = call i32 (i8*, ...) @printf(i8* getelementptr inbounds ([3 x i8], [3 x i8]* @.str.1, i64 0, i64 0), i32 %47)
  %49 = load i32, i32* %3, align 4
  ret i32 %49
}

; Function Attrs: argmemonly nounwind willreturn
declare void @llvm.memcpy.p0i8.p0i8.i64(i8* noalias nocapture writeonly, i8* noalias nocapture readonly, i64, i1 immarg) #1

declare dso_local i32 @__isoc99_scanf(i8*, ...) #2

declare dso_local i32 @printf(i8*, ...) #2


!llvm.module.flags = !{!0}
!llvm.ident = !{!1}

!0 = !{i32 1, !"wchar_size", i32 4}
!1 = !{!"clang version 10.0.0-4ubuntu1 "}
